target datalayout = "e-m:e-p270:32:32-p271:32:32-p272:64:64-i64:64-i128:128-f80:128-n8:16:32:64-S128"
target triple = "x86_64-pc-linux-gnu"

%struct.global_State = type { ptr, ptr, %struct.GCState, %struct.GCstr, i8, i8, i8, i8, %struct.StrInternState, i32, %struct.GCRef, %struct.SBuf, %union.TValue, %union.TValue, %struct.Node, %union.TValue, %struct.GCupval, i32, i32, ptr, ptr, ptr, i32, i32, %struct.GCRef, %struct.MRef, %struct.MRef, %struct.PRNGState, [39 x %struct.GCRef] }
%struct.GCState = type { i64, i64, i8, i8, i8, i8, i32, %struct.GCRef, %struct.MRef, %struct.GCRef, %struct.GCRef, %struct.GCRef, %struct.GCRef, i64, i64, i32, i32, %struct.MRef }
%struct.GCstr = type { %struct.GCRef, i8, i8, i8, i8, i32, i32, i32 }
%struct.StrInternState = type { ptr, i32, i32, i32, i8, i8, i8, i8, i64 }
%struct.SBuf = type { ptr, ptr, ptr, %struct.MRef }
%struct.Node = type { %union.TValue, %union.TValue, %struct.MRef }
%union.TValue = type { i64 }
%struct.GCupval = type { %struct.GCRef, i8, i8, i8, i8, %union.anon, %struct.MRef, i32 }
%union.anon = type { %struct.anon.1 }
%struct.anon.1 = type { %struct.GCRef, %struct.GCRef }
%struct.GCRef = type { i64 }
%struct.MRef = type { i64 }
%struct.PRNGState = type { [4 x i64] }
%struct.lua_State = type { %struct.GCRef, i8, i8, i8, i8, %struct.MRef, %struct.GCRef, ptr, ptr, %struct.MRef, %struct.MRef, %struct.GCRef, %struct.GCRef, ptr, i32 }
%struct.GChead = type { %struct.GCRef, i8, i8, i8, i8, %struct.GCRef, %struct.GCRef, %struct.GCRef }
%struct.GG_State = type { %struct.lua_State, %struct.global_State, %struct.jit_State, [64 x i16], [243 x ptr], [57 x i32] }
%struct.jit_State = type { %struct.GCtrace, ptr, ptr, ptr, ptr, ptr, ptr, i32, i32, i32, i8, i8, %struct.IRType1, i8, %struct.FoldState, ptr, i32, i32, i32, i32, i32, i32, i32, [1 x i32], [5 x %union.TValue], [3 x %union.TValue], ptr, i32, i32, i32, i32, ptr, ptr, i32, i32, i8, ptr, i32, i32, i16, [101 x i16], [258 x i32], [15 x i32], [16 x ptr], [64 x %struct.HotPenalty], i32, [16 x %struct.BPropEntry], i32, %struct.ScEvEntry, ptr, i32, i32, i32, ptr, i32, i32, ptr, ptr, ptr, i64, i64, %union.TValue, ptr, i32, i32 }
%struct.GCtrace = type { %struct.GCRef, i8, i8, i16, i32, i32, %struct.GCRef, ptr, i32, i32, ptr, ptr, %struct.GCRef, %struct.MRef, i32, i32, ptr, i32, i16, i16, i16, i16, i16, i16, i16, i8, i8, i8, i8 }
%struct.IRType1 = type { i8 }
%struct.FoldState = type { %union.IRIns, [2 x %union.IRIns], [2 x %union.IRIns] }
%union.IRIns = type { %struct.GCRef }
%struct.HotPenalty = type { %struct.MRef, i16, i16 }
%struct.BPropEntry = type { i16, i16, i32 }
%struct.ScEvEntry = type { %struct.MRef, i16, i16, i16, i16, %struct.IRType1, i8 }
%struct.GCproto = type { %struct.GCRef, i8, i8, i8, i8, i32, i32, %struct.GCRef, %struct.MRef, %struct.MRef, i32, i32, i32, i8, i8, i16, %struct.GCRef, i32, i32, %struct.MRef, %struct.MRef, %struct.MRef }

; Function Attrs: nounwind uwtable
define internal void @gc_marktrace(ptr noundef %0, i32 noundef %1) #0 {
  %3 = alloca ptr, align 8
  %4 = alloca i32, align 4
  %5 = alloca ptr, align 8
  store ptr %0, ptr %3, align 8, !tbaa !4
  store i32 %1, ptr %4, align 4, !tbaa !9
  call void @llvm.lifetime.start.p0(i64 8, ptr %5) #7
  %6 = load ptr, ptr %3, align 8, !tbaa !4
  %7 = getelementptr inbounds i8, ptr %6, i64 -96
  %8 = getelementptr inbounds nuw %struct.GG_State, ptr %7, i32 0, i32 2
  %9 = getelementptr inbounds nuw %struct.jit_State, ptr %8, i32 0, i32 36
  %10 = load ptr, ptr %9, align 8, !tbaa !112
  %11 = load i32, ptr %4, align 4, !tbaa !9
  %12 = zext i32 %11 to i64
  %13 = getelementptr inbounds nuw %struct.GCRef, ptr %10, i64 %12
  %14 = getelementptr inbounds nuw %struct.GCRef, ptr %13, i32 0, i32 0
  %15 = load i64, ptr %14, align 8, !tbaa !27
  %16 = inttoptr i64 %15 to ptr
  store ptr %16, ptr %5, align 8, !tbaa !28
  %17 = load ptr, ptr %5, align 8, !tbaa !28
  %18 = getelementptr inbounds nuw %struct.GChead, ptr %17, i32 0, i32 1
  %19 = load i8, ptr %18, align 8, !tbaa !30
  %20 = zext i8 %19 to i32
  %21 = and i32 %20, 3
  %22 = icmp ne i32 %21, 0
  br i1 %22, label %23, label %44

23:                                               ; preds = %2
  %24 = load ptr, ptr %5, align 8, !tbaa !28
  %25 = getelementptr inbounds nuw %struct.GChead, ptr %24, i32 0, i32 1
  %26 = load i8, ptr %25, align 8, !tbaa !30
  %27 = zext i8 %26 to i32
  %28 = and i32 %27, 252
  %29 = trunc i32 %28 to i8
  store i8 %29, ptr %25, align 8, !tbaa !30
  %30 = load ptr, ptr %3, align 8, !tbaa !4
  %31 = getelementptr inbounds nuw %struct.global_State, ptr %30, i32 0, i32 2
  %32 = getelementptr inbounds nuw %struct.GCState, ptr %31, i32 0, i32 9
  %33 = getelementptr inbounds nuw %struct.GCRef, ptr %32, i32 0, i32 0
  %34 = load i64, ptr %33, align 8, !tbaa !88
  %35 = load ptr, ptr %5, align 8, !tbaa !28
  %36 = getelementptr inbounds nuw %struct.GChead, ptr %35, i32 0, i32 6
  %37 = getelementptr inbounds nuw %struct.GCRef, ptr %36, i32 0, i32 0
  store i64 %34, ptr %37, align 8, !tbaa !30
  %38 = load ptr, ptr %5, align 8, !tbaa !28
  %39 = ptrtoint ptr %38 to i64
  %40 = load ptr, ptr %3, align 8, !tbaa !4
  %41 = getelementptr inbounds nuw %struct.global_State, ptr %40, i32 0, i32 2
  %42 = getelementptr inbounds nuw %struct.GCState, ptr %41, i32 0, i32 9
  %43 = getelementptr inbounds nuw %struct.GCRef, ptr %42, i32 0, i32 0
  store i64 %39, ptr %43, align 8, !tbaa !88
  br label %44

44:                                               ; preds = %23, %2
  call void @llvm.lifetime.end.p0(i64 8, ptr %5) #7
  ret void
}

; Function Attrs: nounwind uwtable
define internal void @gc_traverse_proto(ptr noundef %0, ptr noundef %1) #0 {
  %3 = alloca ptr, align 8
  %4 = alloca ptr, align 8
  %5 = alloca i64, align 8
  store ptr %0, ptr %3, align 8, !tbaa !4
  store ptr %1, ptr %4, align 8, !tbaa !121
  call void @llvm.lifetime.start.p0(i64 8, ptr %5) #7
  %6 = load ptr, ptr %4, align 8, !tbaa !121
  %7 = getelementptr inbounds nuw %struct.GCproto, ptr %6, i32 0, i32 16
  %8 = getelementptr inbounds nuw %struct.GCRef, ptr %7, i32 0, i32 0
  %9 = load i64, ptr %8, align 8, !tbaa !140
  %10 = inttoptr i64 %9 to ptr
  %11 = getelementptr inbounds nuw %struct.GCstr, ptr %10, i32 0, i32 1
  %12 = load i8, ptr %11, align 8, !tbaa !30
  %13 = zext i8 %12 to i32
  %14 = and i32 %13, 252
  %15 = trunc i32 %14 to i8
  store i8 %15, ptr %11, align 8, !tbaa !30
  %16 = load ptr, ptr %4, align 8, !tbaa !121
  %17 = getelementptr inbounds nuw %struct.GCproto, ptr %16, i32 0, i32 10
  %18 = load i32, ptr %17, align 8, !tbaa !141
  %19 = zext i32 %18 to i64
  %20 = sub nsw i64 0, %19
  store i64 %20, ptr %5, align 8, !tbaa !11
  br label %21

21:                                               ; preds = %53, %2
  %22 = load i64, ptr %5, align 8, !tbaa !11
  %23 = icmp slt i64 %22, 0
  br i1 %23, label %24, label %56

24:                                               ; preds = %21
  %25 = load ptr, ptr %4, align 8, !tbaa !121
  %26 = getelementptr inbounds nuw %struct.GCproto, ptr %25, i32 0, i32 8
  %27 = getelementptr inbounds nuw %struct.MRef, ptr %26, i32 0, i32 0
  %28 = load i64, ptr %27, align 8, !tbaa !142
  %29 = inttoptr i64 %28 to ptr
  %30 = load i64, ptr %5, align 8, !tbaa !11
  %31 = getelementptr inbounds %struct.GCRef, ptr %29, i64 %30
  %32 = getelementptr inbounds nuw %struct.GCRef, ptr %31, i32 0, i32 0
  %33 = load i64, ptr %32, align 8, !tbaa !27
  %34 = inttoptr i64 %33 to ptr
  %35 = getelementptr inbounds nuw %struct.GChead, ptr %34, i32 0, i32 1
  %36 = load i8, ptr %35, align 8, !tbaa !30
  %37 = zext i8 %36 to i32
  %38 = and i32 %37, 3
  %39 = icmp ne i32 %38, 0
  br i1 %39, label %40, label %52

40:                                               ; preds = %24
  %41 = load ptr, ptr %3, align 8, !tbaa !4
  %42 = load ptr, ptr %4, align 8, !tbaa !121
  %43 = getelementptr inbounds nuw %struct.GCproto, ptr %42, i32 0, i32 8
  %44 = getelementptr inbounds nuw %struct.MRef, ptr %43, i32 0, i32 0
  %45 = load i64, ptr %44, align 8, !tbaa !142
  %46 = inttoptr i64 %45 to ptr
  %47 = load i64, ptr %5, align 8, !tbaa !11
  %48 = getelementptr inbounds %struct.GCRef, ptr %46, i64 %47
  %49 = getelementptr inbounds nuw %struct.GCRef, ptr %48, i32 0, i32 0
  %50 = load i64, ptr %49, align 8, !tbaa !27
  %51 = inttoptr i64 %50 to ptr
  call void @gc_mark(ptr noundef %41, ptr noundef %51)
  br label %52

52:                                               ; preds = %40, %24
  br label %53

53:                                               ; preds = %52
  %54 = load i64, ptr %5, align 8, !tbaa !11
  %55 = add nsw i64 %54, 1
  store i64 %55, ptr %5, align 8, !tbaa !11
  br label %21, !llvm.loop !143

56:                                               ; preds = %21
  %57 = load ptr, ptr %4, align 8, !tbaa !121
  %58 = getelementptr inbounds nuw %struct.GCproto, ptr %57, i32 0, i32 15
  %59 = load i16, ptr %58, align 2, !tbaa !144
  %60 = icmp ne i16 %59, 0
  br i1 %60, label %61, label %67

61:                                               ; preds = %56
  %62 = load ptr, ptr %3, align 8, !tbaa !4
  %63 = load ptr, ptr %4, align 8, !tbaa !121
  %64 = getelementptr inbounds nuw %struct.GCproto, ptr %63, i32 0, i32 15
  %65 = load i16, ptr %64, align 2, !tbaa !144
  %66 = zext i16 %65 to i32
  call void @gc_marktrace(ptr noundef %62, i32 noundef %66)
  br label %67

67:                                               ; preds = %61, %56
  call void @llvm.lifetime.end.p0(i64 8, ptr %5) #7
  ret void
}