; Function Attrs: nofree nosync nounwind memory(readwrite, inaccessiblemem: none) uwtable
define internal fastcc void @gc_traverse_proto(ptr noundef %0, ptr noundef readonly captures(none) %1) unnamed_addr #3 {
  %3 = getelementptr inbounds nuw i8, ptr %1, i64 64
  %4 = load i64, ptr %3, align 8, !tbaa !124
  %5 = inttoptr i64 %4 to ptr
  %6 = getelementptr inbounds nuw i8, ptr %5, i64 8
  %7 = load i8, ptr %6, align 8, !tbaa !23
  %8 = and i8 %7, -4
  store i8 %8, ptr %6, align 8, !tbaa !23
  %9 = getelementptr inbounds nuw i8, ptr %1, i64 48
  %10 = load i32, ptr %9, align 8, !tbaa !125
  %.not14 = icmp eq i32 %10, 0
  br i1 %.not14, label %._crit_edge, label %.lr.ph

.lr.ph:                                           ; preds = %2
  %11 = zext i32 %10 to i64
  %12 = sub nsw i64 0, %11
  %13 = getelementptr inbounds nuw i8, ptr %1, i64 32
  br label %14

14:                                               ; preds = %.lr.ph, %24
  %.013 = phi i64 [ %12, %.lr.ph ], [ %25, %24 ]
  %15 = load i64, ptr %13, align 8, !tbaa !126
  %16 = inttoptr i64 %15 to ptr
  %17 = getelementptr inbounds %struct.GCRef, ptr %16, i64 %.013
  %18 = load i64, ptr %17, align 8, !tbaa !22
  %19 = inttoptr i64 %18 to ptr
  %20 = getelementptr inbounds nuw i8, ptr %19, i64 8
  %21 = load i8, ptr %20, align 8, !tbaa !23
  %22 = and i8 %21, 3
  %.not12 = icmp eq i8 %22, 0
  br i1 %.not12, label %24, label %23

23:                                               ; preds = %14
  tail call fastcc void @gc_mark(ptr noundef %0, ptr noundef nonnull %19)
  br label %24

24:                                               ; preds = %14, %23
  %25 = add nsw i64 %.013, 1
  %exitcond.not = icmp eq i64 %25, 0
  br i1 %exitcond.not, label %._crit_edge, label %14, !llvm.loop !127

._crit_edge:                                      ; preds = %24, %2
  %26 = getelementptr inbounds nuw i8, ptr %1, i64 62
  %27 = load i16, ptr %26, align 2, !tbaa !128
  %.not = icmp eq i16 %27, 0
  br i1 %.not, label %gc_marktrace.exit, label %28

28:                                               ; preds = %._crit_edge
  %29 = getelementptr inbounds nuw i8, ptr %0, i64 1120
  %30 = load ptr, ptr %29, align 8, !tbaa !107
  %31 = zext i16 %27 to i64
  %32 = getelementptr inbounds nuw %struct.GCRef, ptr %30, i64 %31
  %33 = load i64, ptr %32, align 8, !tbaa !22
  %34 = inttoptr i64 %33 to ptr
  %35 = getelementptr inbounds nuw i8, ptr %34, i64 8
  %36 = load i8, ptr %35, align 8, !tbaa !23
  %37 = and i8 %36, 3
  %.not.i = icmp eq i8 %37, 0
  br i1 %.not.i, label %gc_marktrace.exit, label %38

38:                                               ; preds = %28
  %39 = and i8 %36, -4
  store i8 %39, ptr %35, align 8, !tbaa !23
  %40 = getelementptr inbounds nuw i8, ptr %0, i64 56
  %41 = load i64, ptr %40, align 8, !tbaa !75
  %42 = getelementptr inbounds nuw i8, ptr %34, i64 24
  store i64 %41, ptr %42, align 8, !tbaa !23
  store i64 %33, ptr %40, align 8, !tbaa !75
  br label %gc_marktrace.exit

gc_marktrace.exit:                                ; preds = %38, %28, %._crit_edge
  ret void
}